; Function Attrs: mustprogress nounwind uwtable
define hidden void @_ZN25InterpreterMacroAssembler24load_resolved_indy_entryE8RegisterS0_(ptr noundef nonnull align 8 dereferenceable(48) %0, i32 %1, i32 %2) local_unnamed_addr #0 align 2 {
  %4 = alloca %class.Address, align 8
  %5 = alloca %class.Address, align 8
  %6 = alloca %class.Address, align 16
  %7 = alloca %class.Address, align 8
  %8 = alloca %class.Address, align 8
  call void @llvm.lifetime.start.p0(i64 64, ptr nonnull %5)
  %9 = getelementptr inbounds i8, ptr %0, i64 44
  %.sroa.02.0.copyload.i = load i32, ptr %9, align 4
  store i32 %.sroa.02.0.copyload.i, ptr %5, align 8
  %10 = getelementptr inbounds i8, ptr %5, i64 4
  store <4 x i32> <i32 -1, i32 -1, i32 -1, i32 1>, ptr %10, align 4
  %11 = getelementptr inbounds i8, ptr %5, i64 20
  store i8 0, ptr %11, align 4
  %12 = getelementptr inbounds i8, ptr %5, i64 24
  store ptr getelementptr inbounds inrange(-16, 72) (i8, ptr @_ZTV10Relocation, i64 16), ptr %12, align 8
  %13 = getelementptr inbounds i8, ptr %5, i64 32
  store ptr null, ptr %13, align 8
  %14 = getelementptr inbounds i8, ptr %5, i64 40
  store i32 0, ptr %14, align 8
  call void @_ZN9Assembler4movlE8Register7Address(ptr noundef nonnull align 8 dereferenceable(40) %0, i32 %2, ptr noundef nonnull %5) #8
  call void @llvm.lifetime.end.p0(i64 64, ptr nonnull %5)
  store <4 x i32> <i32 5, i32 -1, i32 -1, i32 -1>, ptr %6, align 16
  %15 = getelementptr inbounds i8, ptr %6, i64 16
  store i32 -48, ptr %15, align 16
  %16 = getelementptr inbounds i8, ptr %6, i64 20
  store i8 0, ptr %16, align 4
  %17 = getelementptr inbounds i8, ptr %6, i64 24
  store ptr getelementptr inbounds inrange(-16, 72) (i8, ptr @_ZTV10Relocation, i64 16), ptr %17, align 8
  %18 = getelementptr inbounds i8, ptr %6, i64 32
  store ptr null, ptr %18, align 16
  %19 = getelementptr inbounds i8, ptr %6, i64 40
  store i32 0, ptr %19, align 8
  call void @_ZN14MacroAssembler6movptrE8Register7Address(ptr noundef nonnull align 8 dereferenceable(40) %0, i32 %1, ptr noundef nonnull %6) #8
  store i32 %1, ptr %7, align 8
  %20 = getelementptr inbounds i8, ptr %7, i64 4
  store <4 x i32> <i32 -1, i32 -1, i32 -1, i32 40>, ptr %20, align 4
  %21 = getelementptr inbounds i8, ptr %7, i64 20
  store i8 0, ptr %21, align 4
  %22 = getelementptr inbounds i8, ptr %7, i64 24
  store ptr getelementptr inbounds inrange(-16, 72) (i8, ptr @_ZTV10Relocation, i64 16), ptr %22, align 8
  %23 = getelementptr inbounds i8, ptr %7, i64 32
  store ptr null, ptr %23, align 8
  %24 = getelementptr inbounds i8, ptr %7, i64 40
  store i32 0, ptr %24, align 8
  call void @_ZN14MacroAssembler6movptrE8Register7Address(ptr noundef nonnull align 8 dereferenceable(40) %0, i32 %1, ptr noundef nonnull %7) #8
  call void @_ZN9Assembler4shllE8Registeri(ptr noundef nonnull align 8 dereferenceable(40) %0, i32 %2, i32 noundef 4) #8
  store i32 %1, ptr %8, align 8
  %25 = getelementptr inbounds i8, ptr %8, i64 4
  store i32 %2, ptr %25, align 4
  %26 = getelementptr inbounds i8, ptr %8, i64 8
  store i32 -1, ptr %26, align 8
  %27 = getelementptr inbounds i8, ptr %8, i64 12
  store i32 0, ptr %27, align 4
  %28 = getelementptr inbounds i8, ptr %8, i64 16
  store i32 8, ptr %28, align 8
  %29 = getelementptr inbounds i8, ptr %8, i64 20
  store i8 0, ptr %29, align 4
  %30 = getelementptr inbounds i8, ptr %8, i64 24
  store ptr getelementptr inbounds inrange(-16, 72) (i8, ptr @_ZTV10Relocation, i64 16), ptr %30, align 8
  %31 = getelementptr inbounds i8, ptr %8, i64 32
  store ptr null, ptr %31, align 8
  %32 = getelementptr inbounds i8, ptr %8, i64 40
  store i32 0, ptr %32, align 8
  call void @llvm.lifetime.start.p0(i64 64, ptr nonnull %4)
  call void @llvm.memcpy.p0.p0.i64(ptr noundef nonnull align 8 dereferenceable(21) %4, ptr noundef nonnull align 8 dereferenceable(21) %8, i64 21, i1 false)
  %33 = getelementptr inbounds i8, ptr %4, i64 24
  %34 = load ptr, ptr getelementptr inbounds inrange(-32, 56) (i8, ptr @_ZTV10Relocation, i64 32), align 8
  call void %34(ptr noundef nonnull align 8 dereferenceable(20) %30, ptr noundef nonnull align 8 dereferenceable(40) %33) #8
  call void @_ZN9Assembler3leaE8Register7Address(ptr noundef nonnull align 8 dereferenceable(40) %0, i32 %1, ptr noundef nonnull %4) #8
  call void @llvm.lifetime.end.p0(i64 64, ptr nonnull %4)
  ret void
}